target datalayout = "e-m:e-p270:32:32-p271:32:32-p272:64:64-i64:64-i128:128-f80:128-n8:16:32:64-S128"
target triple = "x86_64-unknown-linux-gnu"

%"class.cvc5::internal::NodeTemplate.5" = type { ptr }
%"class.cvc5::internal::expr::NodeValue" = type { i64, i16, i32, [0 x ptr] }

; Function Attrs: mustprogress nounwind uwtable
define linkonce_odr hidden noundef i32 @_ZNK4cvc58internal12NodeTemplateILb0EE7getKindEv(ptr noundef nonnull align 8 dereferenceable(8) %this) #5 comdat align 2 {
entry:
  %this.addr = alloca ptr, align 8
  store ptr %this, ptr %this.addr, align 8
  %this1 = load ptr, ptr %this.addr, align 8
  call void @_ZNK4cvc58internal12NodeTemplateILb0EE21assertTNodeNotExpiredEv(ptr noundef nonnull align 8 dereferenceable(8) %this1)
  %d_nv = getelementptr inbounds %"class.cvc5::internal::NodeTemplate.5", ptr %this1, i32 0, i32 0
  %0 = load ptr, ptr %d_nv, align 8
  %d_kind = getelementptr inbounds %"class.cvc5::internal::expr::NodeValue", ptr %0, i32 0, i32 1
  %bf.load = load i16, ptr %d_kind, align 8
  %bf.clear = and i16 %bf.load, 1023
  %bf.cast = zext i16 %bf.clear to i32
  ret i32 %bf.cast
}

; Function Attrs: mustprogress nounwind uwtable
define linkonce_odr hidden void @_ZNK4cvc58internal12NodeTemplateILb0EE21assertTNodeNotExpiredEv(ptr noundef nonnull align 8 dereferenceable(8) %this) #5 comdat align 2 {
entry:
  %this.addr = alloca ptr, align 8
  store ptr %this, ptr %this.addr, align 8
  ret void
}

; Function Attrs: mustprogress nounwind uwtable
define linkonce_odr hidden noundef zeroext i1 @_ZNK4cvc58internal12NodeTemplateILb0EE9isClosureEv(ptr noundef nonnull align 8 dereferenceable(8) %this) #5 comdat align 2 {
entry:
  %this.addr = alloca ptr, align 8
  store ptr %this, ptr %this.addr, align 8
  %this1 = load ptr, ptr %this.addr, align 8
  call void @_ZNK4cvc58internal12NodeTemplateILb0EE21assertTNodeNotExpiredEv(ptr noundef nonnull align 8 dereferenceable(8) %this1)
  %call = call noundef i32 @_ZNK4cvc58internal12NodeTemplateILb0EE7getKindEv(ptr noundef nonnull align 8 dereferenceable(8) %this1)
  %cmp = icmp eq i32 %call, 26
  br i1 %cmp, label %lor.end, label %lor.lhs.false

lor.lhs.false:                                    ; preds = %entry
  %call2 = call noundef i32 @_ZNK4cvc58internal12NodeTemplateILb0EE7getKindEv(ptr noundef nonnull align 8 dereferenceable(8) %this1)
  %cmp3 = icmp eq i32 %call2, 352
  br i1 %cmp3, label %lor.end, label %lor.lhs.false4

lor.lhs.false4:                                   ; preds = %lor.lhs.false
  %call5 = call noundef i32 @_ZNK4cvc58internal12NodeTemplateILb0EE7getKindEv(ptr noundef nonnull align 8 dereferenceable(8) %this1)
  %cmp6 = icmp eq i32 %call5, 353
  br i1 %cmp6, label %lor.end, label %lor.lhs.false7

lor.lhs.false7:                                   ; preds = %lor.lhs.false4
  %call8 = call noundef i32 @_ZNK4cvc58internal12NodeTemplateILb0EE7getKindEv(ptr noundef nonnull align 8 dereferenceable(8) %this1)
  %cmp9 = icmp eq i32 %call8, 11
  br i1 %cmp9, label %lor.end, label %lor.lhs.false10

lor.lhs.false10:                                  ; preds = %lor.lhs.false7
  %call11 = call noundef i32 @_ZNK4cvc58internal12NodeTemplateILb0EE7getKindEv(ptr noundef nonnull align 8 dereferenceable(8) %this1)
  %cmp12 = icmp eq i32 %call11, 255
  br i1 %cmp12, label %lor.end, label %lor.rhs

lor.rhs:                                          ; preds = %lor.lhs.false10
  %call13 = call noundef i32 @_ZNK4cvc58internal12NodeTemplateILb0EE7getKindEv(ptr noundef nonnull align 8 dereferenceable(8) %this1)
  %cmp14 = icmp eq i32 %call13, 233
  br label %lor.end

lor.end:                                          ; preds = %lor.rhs, %lor.lhs.false10, %lor.lhs.false7, %lor.lhs.false4, %lor.lhs.false, %entry
  %0 = phi i1 [ true, %lor.lhs.false10 ], [ true, %lor.lhs.false7 ], [ true, %lor.lhs.false4 ], [ true, %lor.lhs.false ], [ true, %entry ], [ %cmp14, %lor.rhs ]
  ret i1 %0
}

; Function Attrs: mustprogress uwtable
define hidden noundef zeroext i1 @_ZN4cvc58internal6theory11quantifiers5ieval9QuantInfo14isTraverseTermENS0_12NodeTemplateILb0EEE(ptr noundef %n) #4 align 2 {
entry:
  %n.indirect_addr = alloca ptr, align 8
  store ptr %n, ptr %n.indirect_addr, align 8
  %call = call noundef zeroext i1 @_ZNK4cvc58internal12NodeTemplateILb0EE9isClosureEv(ptr noundef nonnull align 8 dereferenceable(8) %n)
  %lnot = xor i1 %call, true
  ret i1 %lnot
}