; Function Attrs: mustprogress nofree norecurse nosync nounwind willreturn memory(read, inaccessiblemem: none) uwtable
define hidden noundef zeroext i1 @_ZN4cvc58internal6theory11quantifiers5ieval9QuantInfo14isTraverseTermENS0_12NodeTemplateILb0EEE(ptr nocapture noundef readonly %n) local_unnamed_addr #9 align 2 {
entry:
  %0 = load ptr, ptr %n, align 8
  %d_kind.i.i = getelementptr inbounds i8, ptr %0, i64 8
  %bf.load.i.i = load i16, ptr %d_kind.i.i, align 8
  %bf.clear.i.i = and i16 %bf.load.i.i, 1023
  switch i16 %bf.clear.i.i, label %lor.rhs.i [
    i16 26, label %_ZNK4cvc58internal12NodeTemplateILb0EE9isClosureEv.exit
    i16 352, label %_ZNK4cvc58internal12NodeTemplateILb0EE9isClosureEv.exit
    i16 353, label %_ZNK4cvc58internal12NodeTemplateILb0EE9isClosureEv.exit
    i16 11, label %_ZNK4cvc58internal12NodeTemplateILb0EE9isClosureEv.exit
    i16 255, label %_ZNK4cvc58internal12NodeTemplateILb0EE9isClosureEv.exit
    i16 233, label %_ZNK4cvc58internal12NodeTemplateILb0EE9isClosureEv.exit
  ]

lor.rhs.i:                                        ; preds = %entry
  br label %_ZNK4cvc58internal12NodeTemplateILb0EE9isClosureEv.exit

_ZNK4cvc58internal12NodeTemplateILb0EE9isClosureEv.exit: ; preds = %entry, %entry, %entry, %entry, %entry, %entry, %lor.rhs.i
  %lnot = phi i1 [ false, %entry ], [ true, %lor.rhs.i ], [ false, %entry ], [ false, %entry ], [ false, %entry ], [ false, %entry ], [ false, %entry ]
  ret i1 %lnot
}